target datalayout = "e-m:e-p270:32:32-p271:32:32-p272:64:64-i64:64-i128:128-f80:128-n8:16:32:64-S128"
target triple = "x86_64-pc-linux-gnu"

%struct.lxb_html_parser_t = type { ptr, ptr, ptr, ptr, ptr, i32, i32, i64 }
%struct.lxb_html_tree = type { ptr, ptr, ptr, ptr, ptr, ptr, ptr, %struct.lxb_html_tree_pending_table_t, ptr, i8, i8, i8, i8, i8, i8, ptr, ptr, ptr, i32, i64 }
%struct.lxb_html_tree_pending_table_t = type { ptr, i8 }
%struct.lxb_html_document = type { %struct.lxb_dom_document, ptr, ptr, ptr, %struct.lxb_html_document_css_t, i8, ptr, i32, i32 }
%struct.lxb_dom_document = type { %struct.lxb_dom_node, i32, i32, ptr, ptr, ptr, ptr, ptr, ptr, ptr, ptr, ptr, ptr, ptr, ptr, ptr, ptr, ptr, ptr, ptr, i8, i8, i8 }
%struct.lxb_dom_node = type { %struct.lxb_dom_event_target, i64, i64, i64, ptr, ptr, ptr, ptr, ptr, ptr, ptr, i32, i64 }
%struct.lxb_dom_event_target = type { ptr }
%struct.lxb_html_document_css_t = type { ptr, ptr, ptr, ptr, ptr, ptr, ptr, ptr, i64 }
%struct.lxb_html_tokenizer = type { ptr, ptr, ptr, ptr, ptr, ptr, ptr, ptr, ptr, ptr, ptr, ptr, ptr, ptr, ptr, i64, ptr, ptr, ptr, ptr, ptr, i64, i64, ptr, ptr, i64, i64, i32, i32, i8, i32, i32, i8, ptr, i64 }

; Function Attrs: nounwind uwtable
define internal zeroext i1 @lxb_html_document_is_original(ptr noundef %0) #0 {
  %2 = alloca ptr, align 8
  store ptr %0, ptr %2, align 8
  %3 = load ptr, ptr %2, align 8
  %4 = getelementptr inbounds %struct.lxb_dom_node, ptr %3, i32 0, i32 4
  %5 = load ptr, ptr %4, align 8
  %6 = load ptr, ptr %2, align 8
  %7 = getelementptr inbounds %struct.lxb_html_document, ptr %6, i32 0, i32 0
  %8 = icmp eq ptr %5, %7
  ret i1 %8
}

; Function Attrs: nounwind uwtable
define internal void @lxb_html_tokenizer_tree_set(ptr noundef %0, ptr noundef %1) #0 {
  %3 = alloca ptr, align 8
  %4 = alloca ptr, align 8
  store ptr %0, ptr %3, align 8
  store ptr %1, ptr %4, align 8
  %5 = load ptr, ptr %4, align 8
  %6 = load ptr, ptr %3, align 8
  %7 = getelementptr inbounds %struct.lxb_html_tokenizer, ptr %6, i32 0, i32 12
  store ptr %5, ptr %7, align 8
  ret void
}

; Function Attrs: nounwind uwtable
define internal void @lxb_html_parse_fragment_chunk_destroy(ptr noundef %0) #0 {
  %2 = alloca ptr, align 8
  %3 = alloca ptr, align 8
  store ptr %0, ptr %2, align 8
  %4 = load ptr, ptr %2, align 8
  %5 = getelementptr inbounds %struct.lxb_html_parser_t, ptr %4, i32 0, i32 4
  %6 = load ptr, ptr %5, align 8
  %7 = icmp ne ptr %6, null
  br i1 %7, label %8, label %15

8:                                                ; preds = %1
  %9 = load ptr, ptr %2, align 8
  %10 = getelementptr inbounds %struct.lxb_html_parser_t, ptr %9, i32 0, i32 4
  %11 = load ptr, ptr %10, align 8
  %12 = call ptr @lxb_html_form_element_interface_destroy(ptr noundef %11)
  %13 = load ptr, ptr %2, align 8
  %14 = getelementptr inbounds %struct.lxb_html_parser_t, ptr %13, i32 0, i32 4
  store ptr null, ptr %14, align 8
  br label %15

15:                                               ; preds = %8, %1
  %16 = load ptr, ptr %2, align 8
  %17 = getelementptr inbounds %struct.lxb_html_parser_t, ptr %16, i32 0, i32 1
  %18 = load ptr, ptr %17, align 8
  %19 = getelementptr inbounds %struct.lxb_html_tree, ptr %18, i32 0, i32 2
  %20 = load ptr, ptr %19, align 8
  %21 = icmp ne ptr %20, null
  br i1 %21, label %22, label %33

22:                                               ; preds = %15
  %23 = load ptr, ptr %2, align 8
  %24 = getelementptr inbounds %struct.lxb_html_parser_t, ptr %23, i32 0, i32 1
  %25 = load ptr, ptr %24, align 8
  %26 = getelementptr inbounds %struct.lxb_html_tree, ptr %25, i32 0, i32 2
  %27 = load ptr, ptr %26, align 8
  %28 = call ptr @lxb_html_interface_destroy(ptr noundef %27)
  %29 = load ptr, ptr %2, align 8
  %30 = getelementptr inbounds %struct.lxb_html_parser_t, ptr %29, i32 0, i32 1
  %31 = load ptr, ptr %30, align 8
  %32 = getelementptr inbounds %struct.lxb_html_tree, ptr %31, i32 0, i32 2
  store ptr null, ptr %32, align 8
  br label %33

33:                                               ; preds = %22, %15
  %34 = load ptr, ptr %2, align 8
  %35 = getelementptr inbounds %struct.lxb_html_parser_t, ptr %34, i32 0, i32 1
  %36 = load ptr, ptr %35, align 8
  %37 = getelementptr inbounds %struct.lxb_html_tree, ptr %36, i32 0, i32 1
  %38 = load ptr, ptr %37, align 8
  %39 = call zeroext i1 @lxb_html_document_is_original(ptr noundef %38)
  %40 = zext i1 %39 to i32
  %41 = icmp eq i32 %40, 0
  br i1 %41, label %42, label %72

42:                                               ; preds = %33
  %43 = load ptr, ptr %2, align 8
  %44 = getelementptr inbounds %struct.lxb_html_parser_t, ptr %43, i32 0, i32 3
  %45 = load ptr, ptr %44, align 8
  %46 = icmp ne ptr %45, null
  br i1 %46, label %47, label %61

47:                                               ; preds = %42
  %48 = load ptr, ptr %2, align 8
  %49 = getelementptr inbounds %struct.lxb_html_parser_t, ptr %48, i32 0, i32 1
  %50 = load ptr, ptr %49, align 8
  %51 = getelementptr inbounds %struct.lxb_html_tree, ptr %50, i32 0, i32 1
  %52 = load ptr, ptr %51, align 8
  %53 = getelementptr inbounds %struct.lxb_dom_node, ptr %52, i32 0, i32 4
  %54 = load ptr, ptr %53, align 8
  store ptr %54, ptr %3, align 8
  %55 = load ptr, ptr %3, align 8
  %56 = getelementptr inbounds %struct.lxb_dom_document, ptr %55, i32 0, i32 0
  %57 = load ptr, ptr %2, align 8
  %58 = getelementptr inbounds %struct.lxb_html_parser_t, ptr %57, i32 0, i32 3
  %59 = load ptr, ptr %58, align 8
  %60 = getelementptr inbounds %struct.lxb_dom_node, ptr %59, i32 0, i32 7
  store ptr %56, ptr %60, align 8
  br label %61

61:                                               ; preds = %47, %42
  %62 = load ptr, ptr %2, align 8
  %63 = getelementptr inbounds %struct.lxb_html_parser_t, ptr %62, i32 0, i32 1
  %64 = load ptr, ptr %63, align 8
  %65 = getelementptr inbounds %struct.lxb_html_tree, ptr %64, i32 0, i32 1
  %66 = load ptr, ptr %65, align 8
  %67 = call ptr @lxb_html_document_interface_destroy(ptr noundef %66)
  %68 = load ptr, ptr %2, align 8
  %69 = getelementptr inbounds %struct.lxb_html_parser_t, ptr %68, i32 0, i32 1
  %70 = load ptr, ptr %69, align 8
  %71 = getelementptr inbounds %struct.lxb_html_tree, ptr %70, i32 0, i32 1
  store ptr null, ptr %71, align 8
  br label %72

72:                                               ; preds = %61, %33
  ret void
}

; Function Attrs: nounwind uwtable
define internal i32 @lxb_html_tree_end(ptr noundef %0) #0 {
  %2 = alloca ptr, align 8
  store ptr %0, ptr %2, align 8
  %3 = load ptr, ptr %2, align 8
  %4 = getelementptr inbounds %struct.lxb_html_tree, ptr %3, i32 0, i32 1
  %5 = load ptr, ptr %4, align 8
  %6 = getelementptr inbounds %struct.lxb_html_document, ptr %5, i32 0, i32 6
  %7 = load ptr, ptr %6, align 8
  %8 = icmp ne ptr %7, null
  br i1 %8, label %9, label %19

9:                                                ; preds = %1
  %10 = load ptr, ptr %2, align 8
  %11 = getelementptr inbounds %struct.lxb_html_tree, ptr %10, i32 0, i32 1
  %12 = load ptr, ptr %11, align 8
  %13 = getelementptr inbounds %struct.lxb_html_document, ptr %12, i32 0, i32 6
  %14 = load ptr, ptr %13, align 8
  %15 = load ptr, ptr %2, align 8
  %16 = getelementptr inbounds %struct.lxb_html_tree, ptr %15, i32 0, i32 1
  %17 = load ptr, ptr %16, align 8
  %18 = call i32 %14(ptr noundef %17)
  br label %19

19:                                               ; preds = %9, %1
  %20 = load ptr, ptr %2, align 8
  %21 = getelementptr inbounds %struct.lxb_html_tree, ptr %20, i32 0, i32 0
  %22 = load ptr, ptr %21, align 8
  %23 = call i32 @lxb_html_tokenizer_end(ptr noundef %22)
  ret i32 %23
}

; Function Attrs: nounwind uwtable
define hidden ptr @lxb_html_parse_fragment_chunk_end(ptr noundef %0) #0 {
  %2 = alloca ptr, align 8
  %3 = alloca ptr, align 8
  store ptr %0, ptr %3, align 8
  %4 = load ptr, ptr %3, align 8
  %5 = getelementptr inbounds %struct.lxb_html_parser_t, ptr %4, i32 0, i32 5
  %6 = load i32, ptr %5, align 8
  %7 = icmp ne i32 %6, 3
  br i1 %7, label %8, label %11

8:                                                ; preds = %1
  %9 = load ptr, ptr %3, align 8
  %10 = getelementptr inbounds %struct.lxb_html_parser_t, ptr %9, i32 0, i32 6
  store i32 10, ptr %10, align 4
  store ptr null, ptr %2, align 8
  br label %42

11:                                               ; preds = %1
  %12 = load ptr, ptr %3, align 8
  %13 = getelementptr inbounds %struct.lxb_html_parser_t, ptr %12, i32 0, i32 1
  %14 = load ptr, ptr %13, align 8
  %15 = call i32 @lxb_html_tree_end(ptr noundef %14)
  %16 = load ptr, ptr %3, align 8
  %17 = getelementptr inbounds %struct.lxb_html_parser_t, ptr %16, i32 0, i32 6
  store i32 %15, ptr %17, align 4
  %18 = load ptr, ptr %3, align 8
  %19 = getelementptr inbounds %struct.lxb_html_parser_t, ptr %18, i32 0, i32 6
  %20 = load i32, ptr %19, align 4
  %21 = icmp ne i32 %20, 0
  br i1 %21, label %22, label %29

22:                                               ; preds = %11
  %23 = load ptr, ptr %3, align 8
  %24 = getelementptr inbounds %struct.lxb_html_parser_t, ptr %23, i32 0, i32 3
  %25 = load ptr, ptr %24, align 8
  %26 = call ptr @lxb_html_html_element_interface_destroy(ptr noundef %25)
  %27 = load ptr, ptr %3, align 8
  %28 = getelementptr inbounds %struct.lxb_html_parser_t, ptr %27, i32 0, i32 3
  store ptr null, ptr %28, align 8
  br label %29

29:                                               ; preds = %22, %11
  %30 = load ptr, ptr %3, align 8
  call void @lxb_html_parse_fragment_chunk_destroy(ptr noundef %30)
  %31 = load ptr, ptr %3, align 8
  %32 = getelementptr inbounds %struct.lxb_html_parser_t, ptr %31, i32 0, i32 0
  %33 = load ptr, ptr %32, align 8
  %34 = load ptr, ptr %3, align 8
  %35 = getelementptr inbounds %struct.lxb_html_parser_t, ptr %34, i32 0, i32 2
  %36 = load ptr, ptr %35, align 8
  call void @lxb_html_tokenizer_tree_set(ptr noundef %33, ptr noundef %36)
  %37 = load ptr, ptr %3, align 8
  %38 = getelementptr inbounds %struct.lxb_html_parser_t, ptr %37, i32 0, i32 5
  store i32 2, ptr %38, align 8
  %39 = load ptr, ptr %3, align 8
  %40 = getelementptr inbounds %struct.lxb_html_parser_t, ptr %39, i32 0, i32 3
  %41 = load ptr, ptr %40, align 8
  store ptr %41, ptr %2, align 8
  br label %42

42:                                               ; preds = %29, %8
  %43 = load ptr, ptr %2, align 8
  ret ptr %43
}