; Function Attrs: nounwind uwtable
define hidden ptr @lxb_html_parse_fragment_chunk_end(ptr nocapture noundef %0) local_unnamed_addr #0 {
  %2 = getelementptr inbounds i8, ptr %0, i64 40
  %3 = load i32, ptr %2, align 8
  %.not = icmp eq i32 %3, 3
  br i1 %.not, label %6, label %4

4:                                                ; preds = %1
  %5 = getelementptr inbounds i8, ptr %0, i64 44
  store i32 10, ptr %5, align 4
  br label %58

6:                                                ; preds = %1
  %7 = getelementptr inbounds i8, ptr %0, i64 8
  %8 = load ptr, ptr %7, align 8
  %9 = getelementptr inbounds i8, ptr %8, i64 8
  %10 = load ptr, ptr %9, align 8
  %11 = getelementptr inbounds i8, ptr %10, i64 360
  %12 = load ptr, ptr %11, align 8
  %.not.i = icmp eq ptr %12, null
  br i1 %.not.i, label %lxb_html_tree_end.exit, label %13

13:                                               ; preds = %6
  %14 = tail call i32 %12(ptr noundef nonnull %10) #7
  br label %lxb_html_tree_end.exit

lxb_html_tree_end.exit:                           ; preds = %6, %13
  %15 = load ptr, ptr %8, align 8
  %16 = tail call i32 @lxb_html_tokenizer_end(ptr noundef %15) #7
  %17 = getelementptr inbounds i8, ptr %0, i64 44
  store i32 %16, ptr %17, align 4
  %.not13 = icmp eq i32 %16, 0
  br i1 %.not13, label %22, label %18

18:                                               ; preds = %lxb_html_tree_end.exit
  %19 = getelementptr inbounds i8, ptr %0, i64 24
  %20 = load ptr, ptr %19, align 8
  %21 = tail call ptr @lxb_html_html_element_interface_destroy(ptr noundef %20) #7
  store ptr null, ptr %19, align 8
  br label %22

22:                                               ; preds = %18, %lxb_html_tree_end.exit
  %23 = getelementptr inbounds i8, ptr %0, i64 32
  %24 = load ptr, ptr %23, align 8
  %.not.i14 = icmp eq ptr %24, null
  br i1 %.not.i14, label %27, label %25

25:                                               ; preds = %22
  %26 = tail call ptr @lxb_html_form_element_interface_destroy(ptr noundef nonnull %24) #7
  store ptr null, ptr %23, align 8
  br label %27

27:                                               ; preds = %25, %22
  %28 = load ptr, ptr %7, align 8
  %29 = getelementptr inbounds i8, ptr %28, i64 16
  %30 = load ptr, ptr %29, align 8
  %.not15.i = icmp eq ptr %30, null
  br i1 %.not15.i, label %35, label %31

31:                                               ; preds = %27
  %32 = tail call ptr @lxb_html_interface_destroy(ptr noundef nonnull %30) #7
  %33 = load ptr, ptr %7, align 8
  %34 = getelementptr inbounds i8, ptr %33, i64 16
  store ptr null, ptr %34, align 8
  %.pre.i = load ptr, ptr %7, align 8
  br label %35

35:                                               ; preds = %31, %27
  %36 = phi ptr [ %.pre.i, %31 ], [ %28, %27 ]
  %37 = getelementptr inbounds i8, ptr %36, i64 8
  %38 = load ptr, ptr %37, align 8
  %39 = getelementptr inbounds i8, ptr %38, i64 32
  %40 = load ptr, ptr %39, align 8
  %41 = icmp eq ptr %40, %38
  br i1 %41, label %lxb_html_parse_fragment_chunk_destroy.exit, label %42

42:                                               ; preds = %35
  %43 = getelementptr inbounds i8, ptr %0, i64 24
  %44 = load ptr, ptr %43, align 8
  %.not16.i = icmp eq ptr %44, null
  br i1 %.not16.i, label %47, label %45

45:                                               ; preds = %42
  %46 = getelementptr inbounds i8, ptr %44, i64 56
  store ptr %40, ptr %46, align 8
  %.pre17.i = load ptr, ptr %7, align 8
  %.phi.trans.insert.i = getelementptr inbounds i8, ptr %.pre17.i, i64 8
  %.pre18.i = load ptr, ptr %.phi.trans.insert.i, align 8
  br label %47

47:                                               ; preds = %45, %42
  %48 = phi ptr [ %.pre18.i, %45 ], [ %38, %42 ]
  %49 = tail call ptr @lxb_html_document_interface_destroy(ptr noundef %48) #7
  %50 = load ptr, ptr %7, align 8
  %51 = getelementptr inbounds i8, ptr %50, i64 8
  store ptr null, ptr %51, align 8
  br label %lxb_html_parse_fragment_chunk_destroy.exit

lxb_html_parse_fragment_chunk_destroy.exit:       ; preds = %35, %47
  %52 = load ptr, ptr %0, align 8
  %53 = getelementptr inbounds i8, ptr %0, i64 16
  %54 = load ptr, ptr %53, align 8
  %55 = getelementptr inbounds i8, ptr %52, i64 96
  store ptr %54, ptr %55, align 8
  store i32 2, ptr %2, align 8
  %56 = getelementptr inbounds i8, ptr %0, i64 24
  %57 = load ptr, ptr %56, align 8
  br label %58

58:                                               ; preds = %lxb_html_parse_fragment_chunk_destroy.exit, %4
  %.0 = phi ptr [ null, %4 ], [ %57, %lxb_html_parse_fragment_chunk_destroy.exit ]
  ret ptr %.0
}